Certificate:
    Data:
        Version: 3 (0x2)
        Serial Number: 1 (0x1)
    Signature Algorithm: sha1WithRSAEncryption
        Issuer: C=US, ST=CA, L=SanFrancisco, O=Fort-Funston, CN=Fort-Funston CA/emailAddress=me@myhost.mydomain
        Validity
            Not Before: Oct  9 15:34:06 2013 GMT
            Not After : Oct  7 15:34:06 2023 GMT
        Subject: C=US, ST=CA, L=SanFrancisco, O=Fort-Funston, CN=server/emailAddress=me@myhost.mydomain
        Subject Public Key Info:
            Public Key Algorithm: rsaEncryption
                Public-Key: (1024 bit)
                Modulus:
                    00:a9:08:d1:83:e4:d0:1e:6b:2f:bd:64:d1:e3:42:
                    4a:bc:7a:18:21:98:dc:3b:28:28:8e:15:c9:56:8e:
                    b0:fa:d3:c2:7d:2f:93:5b:ec:6b:29:92:e6:b1:c1:
                    5b:ef:72:43:f3:d9:94:75:0c:fe:1f:13:0a:f8:57:
                    5d:5a:a6:f9:07:cf:84:3c:0d:d1:5b:bb:a3:b8:61:
                    b5:e7:61:a1:28:83:27:87:22:7e:59:66:fb:57:b2:
                    f6:19:7d:3a:4d:43:23:d8:a0:4b:99:47:52:f5:eb:
                    45:3e:58:f3:97:7d:3f:cd:66:c9:26:7c:66:ef:96:
                    ff:ef:5a:82:cd:6a:47:a5:09
                Exponent: 65537 (0x10001)
        X509v3 extensions:
            X509v3 Basic Constraints: 
                CA:FALSE
            Netscape Cert Type: 
                SSL Server
            Netscape Comment: 
                Easy-RSA Generated Server Certificate
            X509v3 Subject Key Identifier: 
                03:F6:FE:B6:90:08:EA:CC:D7:93:68:FF:4F:5C:C3:E2:C0:B5:2A:1D
            X509v3 Authority Key Identifier: 
                keyid:85:55:D3:18:B5:D3:73:73:AD:90:35:01:F7:E9:13:98:BA:D8:D7:72
                DirName:/C=US/ST=CA/L=SanFrancisco/O=Fort-Funston/CN=Fort-Funston CA/emailAddress=me@myhost.mydomain
                serial:B4:F9:22:62:F1:8F:A9:05

            X509v3 Extended Key Usage: 
                TLS Web Server Authentication
            X509v3 Key Usage: 
                Digital Signature, Key Encipherment
    Signature Algorithm: sha1WithRSAEncryption
         b3:2b:a8:c2:36:45:b7:4e:11:f5:f3:17:be:53:02:a3:b8:95:
         c5:37:17:dc:db:34:12:00:8d:b0:1b:8d:93:85:9a:f1:4e:b2:
         09:c7:a5:3a:c0:e1:39:02:ae:8e:62:56:e8:a3:39:ef:8d:83:
         63:c6:2d:35:22:21:6a:d9:03:32:8e:bf:38:fd:88:d5:f5:9d:
         af:d3:20:cc:fe:0a:cd:03:fa:14:40:33:26:db:92:bc:2d:1b:
         d2:aa:eb:91:5c:92:fd:9b:2a:83:16:9f:ac:e6:29:51:c0:33:
         53:9a:ae:48:df:f1:29:73:13:86:f3:58:d4:74:25:de:80:49:
         b4:ee
-----BEGIN CERTIFICATE-----
MIID0DCCAzmgAwIBAgIBATANBgkqhkiG9w0BAQUFADCBhTELMAkGA1UEBhMCVVMx
CzAJBgNVBAgTAkNBMRUwEwYDVQQHEwxTYW5GcmFuY2lzY28xFTATBgNVBAoTDEZv
cnQtRnVuc3RvbjEYMBYGA1UEAxMPRm9ydC1GdW5zdG9uIENBMSEwHwYJKoZIhvcN
AQkBFhJtZUBteWhvc3QubXlkb21haW4wHhcNMTMxMDA5MTUzNDA2WhcNMjMxMDA3
MTUzNDA2WjB8MQswCQYDVQQGEwJVUzELMAkGA1UECBMCQ0ExFTATBgNVBAcTDFNh
bkZyYW5jaXNjbzEVMBMGA1UEChMMRm9ydC1GdW5zdG9uMQ8wDQYDVQQDEwZzZXJ2
ZXIxITAfBgkqhkiG9w0BCQEWEm1lQG15aG9zdC5teWRvbWFpbjCBnzANBgkqhkiG
9w0BAQEFAAOBjQAwgYkCgYEAqQjRg+TQHmsvvWTR40JKvHoYIZjcOygojhXJVo6w
+tPCfS+TW+xrKZLmscFb73JD89mUdQz+HxMK+FddWqb5B8+EPA3RW7ujuGG152Gh
KIMnhyJ+WWb7V7L2GX06TUMj2KBLmUdS9etFPljzl30/zWbJJnxm75b/71qCzWpH
pQkCAwEAAaOCAVYwggFSMAkGA1UdEwQCMAAwEQYJYIZIAYb4QgEBBAQDAgZAMDQG
CWCGSAGG+EIBDQQnFiVFYXN5LVJTQSBHZW5lcmF0ZWQgU2VydmVyIENlcnRpZmlj
YXRlMB0GA1UdDgQWBBQD9v62kAjqzNeTaP9PXMPiwLUqHTCBugYDVR0jBIGyMIGv
gBSFVdMYtdNzc62QNQH36ROYutjXcqGBi6SBiDCBhTELMAkGA1UEBhMCVVMxCzAJ
BgNVBAgTAkNBMRUwEwYDVQQHEwxTYW5GcmFuY2lzY28xFTATBgNVBAoTDEZvcnQt
RnVuc3RvbjEYMBYGA1UEAxMPRm9ydC1GdW5zdG9uIENBMSEwHwYJKoZIhvcNAQkB
FhJtZUBteWhvc3QubXlkb21haW6CCQC0+SJi8Y+pBTATBgNVHSUEDDAKBggrBgEF
BQcDATALBgNVHQ8EBAMCBaAwDQYJKoZIhvcNAQEFBQADgYEAsyuowjZFt04R9fMX
vlMCo7iVxTcX3Ns0EgCNsBuNk4Wa8U6yCcelOsDhOQKujmJW6KM5742DY8YtNSIh
atkDMo6/OP2I1fWdr9MgzP4KzQP6FEAzJtuSvC0b0qrrkVyS/ZsqgxafrOYpUcAz
U5quSN/xKXMThvNY1HQl3oBJtO4=
-----END CERTIFICATE-----
