Certificate:
    Data:
        Version: 3 (0x2)
        Serial Number: 2 (0x2)
    Signature Algorithm: sha1WithRSAEncryption
        Issuer: C=US, ST=CA, L=SanFrancisco, O=Fort-Funston, CN=Fort-Funston CA/emailAddress=me@myhost.mydomain
        Validity
            Not Before: Oct  9 15:35:00 2013 GMT
            Not After : Oct  7 15:35:00 2023 GMT
        Subject: C=US, ST=CA, L=SanFrancisco, O=Fort-Funston, CN=whyhello/emailAddress=me@myhost.mydomain
        Subject Public Key Info:
            Public Key Algorithm: rsaEncryption
                Public-Key: (1024 bit)
                Modulus:
                    00:b0:c0:1d:da:b1:b3:79:18:94:ef:d1:63:26:08:
                    3d:bd:20:c9:e8:3b:c3:29:84:33:9d:10:17:6c:75:
                    df:0a:5b:ae:cc:64:44:a0:f8:cd:1f:f3:9d:68:ac:
                    d9:ed:4a:b1:e5:b7:bc:e3:8c:a6:cd:96:ce:04:84:
                    f1:8b:bb:df:3b:c3:c4:ba:3a:42:d5:9f:c2:28:65:
                    55:8d:47:3f:04:74:5a:5d:be:05:e6:74:77:41:83:
                    ea:59:cb:45:6c:c7:68:cc:f0:20:fb:c5:31:ff:84:
                    f6:17:f6:ed:f4:bb:4e:0f:67:39:98:a6:e5:92:7b:
                    f3:e7:fe:b7:2c:85:d2:13:43
                Exponent: 65537 (0x10001)
        X509v3 extensions:
            X509v3 Basic Constraints: 
                CA:FALSE
            Netscape Comment: 
                Easy-RSA Generated Certificate
            X509v3 Subject Key Identifier: 
                F6:D8:B5:FD:03:76:E4:34:B6:B7:43:36:04:8C:77:E2:CA:22:E0:68
            X509v3 Authority Key Identifier: 
                keyid:85:55:D3:18:B5:D3:73:73:AD:90:35:01:F7:E9:13:98:BA:D8:D7:72
                DirName:/C=US/ST=CA/L=SanFrancisco/O=Fort-Funston/CN=Fort-Funston CA/emailAddress=me@myhost.mydomain
                serial:B4:F9:22:62:F1:8F:A9:05

            X509v3 Extended Key Usage: 
                TLS Web Client Authentication
            X509v3 Key Usage: 
                Digital Signature
    Signature Algorithm: sha1WithRSAEncryption
         b7:a9:72:c1:53:90:11:1d:7f:82:6b:70:c5:be:4f:3d:ea:84:
         22:ca:29:04:bf:c9:3f:61:87:df:90:08:6a:8b:81:2f:c2:8d:
         dc:c4:d5:5d:e0:fb:84:8a:79:3e:6f:61:d5:59:ad:f1:2d:98:
         fe:db:49:97:78:09:83:2e:98:37:7d:9c:8c:d7:9a:32:24:36:
         14:9d:5e:2a:71:55:4b:5b:9c:ea:f7:40:92:10:dc:da:83:b6:
         ab:cd:d1:8e:45:ff:aa:17:f0:cd:97:2d:01:5d:06:bd:b8:48:
         58:96:50:29:99:67:51:91:79:1c:ce:1c:20:d0:86:df:16:5c:
         c6:09
-----BEGIN CERTIFICATE-----
MIIDuDCCAyGgAwIBAgIBAjANBgkqhkiG9w0BAQUFADCBhTELMAkGA1UEBhMCVVMx
CzAJBgNVBAgTAkNBMRUwEwYDVQQHEwxTYW5GcmFuY2lzY28xFTATBgNVBAoTDEZv
cnQtRnVuc3RvbjEYMBYGA1UEAxMPRm9ydC1GdW5zdG9uIENBMSEwHwYJKoZIhvcN
AQkBFhJtZUBteWhvc3QubXlkb21haW4wHhcNMTMxMDA5MTUzNTAwWhcNMjMxMDA3
MTUzNTAwWjB+MQswCQYDVQQGEwJVUzELMAkGA1UECBMCQ0ExFTATBgNVBAcTDFNh
bkZyYW5jaXNjbzEVMBMGA1UEChMMRm9ydC1GdW5zdG9uMREwDwYDVQQDEwh3aHlo
ZWxsbzEhMB8GCSqGSIb3DQEJARYSbWVAbXlob3N0Lm15ZG9tYWluMIGfMA0GCSqG
SIb3DQEBAQUAA4GNADCBiQKBgQCwwB3asbN5GJTv0WMmCD29IMnoO8MphDOdEBds
dd8KW67MZESg+M0f851orNntSrHlt7zjjKbNls4EhPGLu987w8S6OkLVn8IoZVWN
Rz8EdFpdvgXmdHdBg+pZy0Vsx2jM8CD7xTH/hPYX9u30u04PZzmYpuWSe/Pn/rcs
hdITQwIDAQABo4IBPDCCATgwCQYDVR0TBAIwADAtBglghkgBhvhCAQ0EIBYeRWFz
eS1SU0EgR2VuZXJhdGVkIENlcnRpZmljYXRlMB0GA1UdDgQWBBT22LX9A3bkNLa3
QzYEjHfiyiLgaDCBugYDVR0jBIGyMIGvgBSFVdMYtdNzc62QNQH36ROYutjXcqGB
i6SBiDCBhTELMAkGA1UEBhMCVVMxCzAJBgNVBAgTAkNBMRUwEwYDVQQHEwxTYW5G
cmFuY2lzY28xFTATBgNVBAoTDEZvcnQtRnVuc3RvbjEYMBYGA1UEAxMPRm9ydC1G
dW5zdG9uIENBMSEwHwYJKoZIhvcNAQkBFhJtZUBteWhvc3QubXlkb21haW6CCQC0
+SJi8Y+pBTATBgNVHSUEDDAKBggrBgEFBQcDAjALBgNVHQ8EBAMCB4AwDQYJKoZI
hvcNAQEFBQADgYEAt6lywVOQER1/gmtwxb5PPeqEIsopBL/JP2GH35AIaouBL8KN
3MTVXeD7hIp5Pm9h1Vmt8S2Y/ttJl3gJgy6YN32cjNeaMiQ2FJ1eKnFVS1uc6vdA
khDc2oO2q83RjkX/qhfwzZctAV0GvbhIWJZQKZlnUZF5HM4cINCG3xZcxgk=
-----END CERTIFICATE-----
